(lp0
(lp1
I10
aI1
aI5
aa(lp2
I28
aI10
aI18
aa(lp3
I52
aI33
aI40
aa(lp4
I84
aI63
aI71
aa(lp5
I123
aI96
aI105
aa(lp6
I159
aI139
aI150
aa(lp7
I215
aI180
aI194
aa(lp8
I233
aI207
aI220
aa(lp9
I271
aI227
aI250
aa(lp10
I295
aI258
aI278
aa(lp11
I301
aI273
aI289
aa(lp12
I321
aI279
aI302
aa(lp13
I327
aI290
aI306
aa(lp14
I322
aI282
aI309
aa(lp15
I341
aI299
aI318
aa(lp16
I343
aI301
aI326
aa(lp17
I350
aI309
aI331
aa(lp18
I355
aI318
aI334
aa(lp19
I360
aI317
aI340
aa(lp20
I361
aI333
aI346
aa(lp21
I379
aI337
aI354
aa(lp22
I387
aI338
aI362
aa(lp23
I395
aI342
aI366
aa.