(lp0
(lp1
I8
aI0
aI4
aa(lp2
I32
aI9
aI16
aa(lp3
I52
aI32
aI42
aa(lp4
I89
aI58
aI69
aa(lp5
I124
aI94
aI106
aa(lp6
I163
aI134
aI149
aa(lp7
I210
aI190
aI198
aa(lp8
I236
aI200
aI218
aa(lp9
I263
aI225
aI248
aa(lp10
I291
aI261
aI277
aa(lp11
I303
aI272
aI289
aa(lp12
I311
aI283
aI299
aa(lp13
I327
aI285
aI306
aa(lp14
I324
aI299
aI313
aa(lp15
I346
aI296
aI319
aa(lp16
I352
aI309
aI324
aa(lp17
I337
aI309
aI324
aa(lp18
I355
aI311
aI339
aa(lp19
I375
aI325
aI342
aa(lp20
I367
aI325
aI346
aa(lp21
I386
aI335
aI353
aa(lp22
I377
aI342
aI361
aa(lp23
I389
aI354
aI369
aa.