(lp0
I0
aI0
aF0.0
aI1
aI0
aF0.1
aI1
aI1
aF1.0
aI1
aI1
aF1.0
aI3
aI1
aF1.9
aI4
aI3
aF3.9
aI5
aI4
aF4.4
aI8
aI5
aF6.9
aI10
aI8
aF9.1
aI15
aI10
aF12.7
aI16
aI15
aF15.45
aI20
aI16
aF18.4
aI24
aI20
aF21.9
aI26
aI25
aF25.15
aI32
aI27
aF28.7
aI37
aI32
aF34.55
aI43
aI38
aF41.05
aI46
aI43
aF44.3
aI52
aI46
aF48.8
aI55
aI52
aF53.85
a.