(lp0
(lp1
I9
aI2
aI4
aa(lp2
I30
aI12
aI19
aa(lp3
I48
aI33
aI40
aa(lp4
I83
aI58
aI69
aa(lp5
I124
aI98
aI108
aa(lp6
I160
aI137
aI152
aa(lp7
I217
aI180
aI196
aa(lp8
I236
aI207
aI222
aa(lp9
I261
aI225
aI247
aa(lp10
I303
aI251
aI277
aa(lp11
I302
aI258
aI286
aa(lp12
I322
aI277
aI299
aa(lp13
I322
aI275
aI301
aa(lp14
I327
aI296
aI312
aa(lp15
I332
aI301
aI318
aa(lp16
I339
aI297
aI319
aa(lp17
I346
aI310
aI326
aa(lp18
I350
aI307
aI334
aa(lp19
I359
aI323
aI341
aa(lp20
I370
aI334
aI352
aa(lp21
I373
aI332
aI356
aa(lp22
I378
aI337
aI359
aa(lp23
I382
aI347
aI366
aa.