((lp0
(lp1
I10
aI1
aI6
aa(lp2
I33
aI18
aI24
aa(lp3
I84
aI30
aI61
aa(lp4
I166
aI107
aI131
aa(lp5
I310
aI171
aI237
aa(lp6
I586
aI332
aI453
aa(lp7
I1140
aI554
aI780
aa(lp8
I1842
aI752
aI1068
aa(lp9
I1961
aI1024
aI1330
aa(lp10
I3379
aI1389
aI2040
aa(lp11
I5425
aI1723
aI2847
aa(lp12
I4791
aI1861
aI3335
aa(lp13
I5770
aI2379
aI3583
aa(lp14
I10166
aI2404
aI3910
aa(lp15
I5508
aI2596
aI4046
aa(lp16
I8292
aI3474
aI4974
aa(lp17
I9840
aI2768
aI5449
aa(lp18
I9420
aI3715
aI6633
aa(lp19
I13098
aI4672
aI7065
aa(lp20
I16027
aI5080
aI9176
aa(lp21
I19375
aI5115
aI9620
aa(lp22
I23488
aI8147
aI12647
aa(lp23
I23817
aI7616
aI15995
aa(lp24
(lp25
I3
aI0
aI0
aa(lp26
I6
aI0
aI0
aa(lp27
I8
aI0
aI0
aa(lp28
I16
aI0
aI0
aa(lp29
I21
aI0
aI0
aa(lp30
I44
aI0
aI0
aa(lp31
I54
aI0
aI0
aa(lp32
I144
aI0
aI1
aa(lp33
I94
aI0
aI1
aa(lp34
I189
aI0
aI2
aa(lp35
I269
aI0
aI2
aa(lp36
I371
aI0
aI3
aa(lp37
I290
aI0
aI3
aa(lp38
I480
aI0
aI3
aa(lp39
I375
aI0
aI3
aa(lp40
I457
aI0
aI4
aa(lp41
I414
aI0
aI5
aa(lp42
I504
aI0
aI6
aa(lp43
I438
aI0
aI6
aa(lp44
I667
aI0
aI8
aa(lp45
I643
aI0
aI9
aa(lp46
I890
aI0
aI12
aa(lp47
I922
aI0
aI15
aatp48
.