((lp0
(lp1
I11
aI3
aI5
aa(lp2
I39
aI19
aI25
aa(lp3
I76
aI43
aI57
aa(lp4
I158
aI95
aI123
aa(lp5
I280
aI198
aI231
aa(lp6
I537
aI337
aI422
aa(lp7
I909
aI668
aI755
aa(lp8
I1300
aI783
aI1056
aa(lp9
I2049
aI1129
aI1474
aa(lp10
I3633
aI1477
aI2195
aa(lp11
I4287
aI1885
aI2549
aa(lp12
I4129
aI2182
aI2914
aa(lp13
I5867
aI1969
aI3228
aa(lp14
I8899
aI2569
aI4130
aa(lp15
I6589
aI2949
aI4151
aa(lp16
I7110
aI3055
aI4483
aa(lp17
I8557
aI3510
aI5211
aa(lp18
I13161
aI4759
aI6418
aa(lp19
I8948
aI4837
aI6696
aa(lp20
I16774
aI4928
aI8636
aa(lp21
I19577
aI6032
aI9994
aa(lp22
I20867
aI6146
aI12061
aa(lp23
I24085
aI8580
aI14709
aa(lp24
(lp25
I2
aI0
aI0
aa(lp26
I6
aI0
aI0
aa(lp27
I9
aI0
aI0
aa(lp28
I12
aI0
aI0
aa(lp29
I17
aI0
aI0
aa(lp30
I27
aI0
aI0
aa(lp31
I55
aI0
aI0
aa(lp32
I81
aI0
aI1
aa(lp33
I119
aI0
aI1
aa(lp34
I159
aI0
aI2
aa(lp35
I232
aI0
aI2
aa(lp36
I229
aI0
aI2
aa(lp37
I217
aI0
aI3
aa(lp38
I406
aI0
aI4
aa(lp39
I288
aI0
aI4
aa(lp40
I373
aI0
aI4
aa(lp41
I411
aI0
aI5
aa(lp42
I475
aI0
aI6
aa(lp43
I577
aI0
aI6
aa(lp44
I618
aI0
aI8
aa(lp45
I861
aI0
aI9
aa(lp46
I781
aI0
aI11
aa(lp47
I884
aI0
aI14
aatp48
.