((lp0
(lp1
I11
aI0
aI4
aa(lp2
I38
aI13
aI25
aa(lp3
I90
aI37
aI61
aa(lp4
I190
aI95
aI124
aa(lp5
I329
aI194
aI253
aa(lp6
I631
aI360
aI448
aa(lp7
I1095
aI650
aI824
aa(lp8
I1487
aI719
aI1082
aa(lp9
I1964
aI1116
aI1447
aa(lp10
I2925
aI1684
aI2223
aa(lp11
I3474
aI1828
aI2520
aa(lp12
I5256
aI2120
aI2895
aa(lp13
I4793
aI2117
aI3354
aa(lp14
I5611
aI2343
aI3560
aa(lp15
I10123
aI2920
aI4450
aa(lp16
I7144
aI3223
aI4667
aa(lp17
I7681
aI3386
aI5582
aa(lp18
I13270
aI3826
aI6437
aa(lp19
I12475
aI4423
aI7953
aa(lp20
I18118
aI5621
aI8835
aa(lp21
I16842
aI6795
aI10502
aa(lp22
I18889
aI6815
aI12897
aa(lp23
I21237
aI8332
aI13940
aa(lp24
(lp25
I4
aI0
aI0
aa(lp26
I6
aI0
aI0
aa(lp27
I7
aI0
aI0
aa(lp28
I13
aI0
aI0
aa(lp29
I22
aI0
aI0
aa(lp30
I36
aI0
aI0
aa(lp31
I59
aI0
aI0
aa(lp32
I102
aI0
aI0
aa(lp33
I90
aI0
aI1
aa(lp34
I135
aI0
aI2
aa(lp35
I171
aI0
aI2
aa(lp36
I238
aI0
aI2
aa(lp37
I202
aI0
aI3
aa(lp38
I437
aI0
aI3
aa(lp39
I424
aI0
aI4
aa(lp40
I315
aI0
aI4
aa(lp41
I465
aI0
aI5
aa(lp42
I510
aI0
aI6
aa(lp43
I788
aI0
aI7
aa(lp44
I672
aI0
aI8
aa(lp45
I783
aI0
aI10
aa(lp46
I847
aI0
aI12
aa(lp47
I903
aI0
aI13
aatp48
.