((lp0
I1
aI0
aF0.2
aI1
aI1
aF1.0
aI3
aI1
aF1.9
aI3
aI3
aF3.0
aI5
aI3
aF3.45
aI5
aI5
aF5.0
aI7
aI5
aF6.65
aI12
aI7
aF9.15
aI13
aI12
aF12.55
aI20
aI13
aF15.2
aI26
aI20
aF22.4
aI39
aI26
aF32.45
aI51
aI39
aF43.75
aI64
aI51
aF54.25
aI74
aI65
aF69.25
aI78
aI74
aF74.6
aI91
aI78
aF84.35
aI105
aI91
aF95.3
aI114
aI105
aF110.45
aI135
aI114
aF125.3
a(lp1
I1
aI0
aF0.0702835110652448
aI1
aI0
aF0.2074817837142282
aI1
aI0
aF0.253504031360316
aI1
aI0
aF0.2770314676784925
aI1
aI0
aF0.2908170313439817
aI1
aI0
aF0.3004237868104538
aI1
aI0
aF0.307548131057474
aI1
aI0
aF0.3132914043840487
aI1
aI0
aF0.31824442545069376
aI2
aI0
aF0.3457392934384731
aI2
aI0
aF0.3781356230288051
aI2
aI0
aF0.406080754658124
aI3
aI0
aF0.4408537892251219
aI4
aI0
aF0.4867545754350857
aI4
aI0
aF0.5484882551410133
aI4
aI0
aF0.6025471434668918
aI4
aI0
aF0.6505359290900544
aI4
aI0
aF0.6935020485331408
aI4
aI0
aF0.7324068480552619
aI5
aI0
aF0.7719650340678152
atp2
.